target datalayout = "e-m:e-p270:32:32-p271:32:32-p272:64:64-i64:64-i128:128-f80:128-n8:16:32:64-S128"
target triple = "x86_64-pc-linux-gnu"

@tcg_ctx = external thread_local global ptr, align 8

; Function Attrs: inlinehint nounwind sspstrong uwtable
define internal ptr @tcgv_i32_temp(ptr noundef %0) #4 {
  %2 = alloca ptr, align 8
  store ptr %0, ptr %2, align 8
  %3 = call align 8 ptr @llvm.threadlocal.address.p0(ptr align 8 @tcg_ctx)
  %4 = load ptr, ptr %3, align 8
  %5 = load ptr, ptr %2, align 8
  %6 = ptrtoint ptr %5 to i64
  %7 = getelementptr inbounds nuw i8, ptr %4, i64 %6
  ret ptr %7
}

; Function Attrs: inlinehint nounwind sspstrong uwtable
define internal i64 @temp_arg(ptr noundef %0) #4 {
  %2 = alloca ptr, align 8
  store ptr %0, ptr %2, align 8
  %3 = load ptr, ptr %2, align 8
  %4 = ptrtoint ptr %3 to i64
  ret i64 %4
}

; Function Attrs: inlinehint nounwind sspstrong uwtable
define internal ptr @tcgv_i64_temp(ptr noundef %0) #4 {
  %2 = alloca ptr, align 8
  store ptr %0, ptr %2, align 8
  %3 = load ptr, ptr %2, align 8
  %4 = call ptr @tcgv_i32_temp(ptr noundef %3)
  ret ptr %4
}

; Function Attrs: nounwind sspstrong uwtable
define internal void @tcg_gen_op2_i64(i32 noundef %0, ptr noundef %1, ptr noundef %2) #3 {
  %4 = alloca i32, align 4
  %5 = alloca ptr, align 8
  %6 = alloca ptr, align 8
  store i32 %0, ptr %4, align 4
  store ptr %1, ptr %5, align 8
  store ptr %2, ptr %6, align 8
  %7 = load i32, ptr %4, align 4
  %8 = load ptr, ptr %5, align 8
  %9 = call i64 @tcgv_i64_arg(ptr noundef %8)
  %10 = load ptr, ptr %6, align 8
  %11 = call i64 @tcgv_i64_arg(ptr noundef %10)
  %12 = call ptr @tcg_gen_op2(i32 noundef %7, i32 noundef 1, i64 noundef %9, i64 noundef %11)
  ret void
}

; Function Attrs: inlinehint nounwind sspstrong uwtable
define internal i64 @tcgv_i64_arg(ptr noundef %0) #4 {
  %2 = alloca ptr, align 8
  store ptr %0, ptr %2, align 8
  %3 = load ptr, ptr %2, align 8
  %4 = call ptr @tcgv_i64_temp(ptr noundef %3)
  %5 = call i64 @temp_arg(ptr noundef %4)
  ret i64 %5
}

; Function Attrs: nounwind sspstrong uwtable
define dso_local void @tcg_gen_mov_i64(ptr noundef %0, ptr noundef %1) #3 {
  %3 = alloca ptr, align 8
  %4 = alloca ptr, align 8
  store ptr %0, ptr %3, align 8
  store ptr %1, ptr %4, align 8
  %5 = load ptr, ptr %3, align 8
  %6 = load ptr, ptr %4, align 8
  %7 = icmp eq ptr %5, %6
  br i1 %7, label %8, label %9

8:                                                ; preds = %2
  br label %12

9:                                                ; preds = %2
  %10 = load ptr, ptr %3, align 8
  %11 = load ptr, ptr %4, align 8
  call void @tcg_gen_op2_i64(i32 noundef 63, ptr noundef %10, ptr noundef %11)
  br label %12

12:                                               ; preds = %9, %8
  ret void
}

; Function Attrs: nounwind sspstrong uwtable
define internal void @tcg_gen_op4i_i64(i32 noundef %0, ptr noundef %1, ptr noundef %2, ptr noundef %3, i64 noundef %4) #3 {
  %6 = alloca i32, align 4
  %7 = alloca ptr, align 8
  %8 = alloca ptr, align 8
  %9 = alloca ptr, align 8
  %10 = alloca i64, align 8
  store i32 %0, ptr %6, align 4
  store ptr %1, ptr %7, align 8
  store ptr %2, ptr %8, align 8
  store ptr %3, ptr %9, align 8
  store i64 %4, ptr %10, align 8
  %11 = load i32, ptr %6, align 4
  %12 = load ptr, ptr %7, align 8
  %13 = call i64 @tcgv_i64_arg(ptr noundef %12)
  %14 = load ptr, ptr %8, align 8
  %15 = call i64 @tcgv_i64_arg(ptr noundef %14)
  %16 = load ptr, ptr %9, align 8
  %17 = call i64 @tcgv_i64_arg(ptr noundef %16)
  %18 = load i64, ptr %10, align 8
  %19 = call ptr @tcg_gen_op4(i32 noundef %11, i32 noundef 1, i64 noundef %13, i64 noundef %15, i64 noundef %17, i64 noundef %18)
  ret void
}

; Function Attrs: nounwind sspstrong uwtable
define dso_local void @tcg_gen_movi_i64(ptr noundef %0, i64 noundef %1) #3 {
  %3 = alloca ptr, align 8
  %4 = alloca i64, align 8
  store ptr %0, ptr %3, align 8
  store i64 %1, ptr %4, align 8
  %5 = load ptr, ptr %3, align 8
  %6 = load i64, ptr %4, align 8
  %7 = call ptr @tcg_constant_i64(i64 noundef %6)
  call void @tcg_gen_mov_i64(ptr noundef %5, ptr noundef %7)
  ret void
}

; Function Attrs: nounwind sspstrong uwtable
define dso_local void @tcg_gen_setcond_i64(i32 noundef %0, ptr noundef %1, ptr noundef %2, ptr noundef %3) #3 {
  %5 = alloca i32, align 4
  %6 = alloca ptr, align 8
  %7 = alloca ptr, align 8
  %8 = alloca ptr, align 8
  store i32 %0, ptr %5, align 4
  store ptr %1, ptr %6, align 8
  store ptr %2, ptr %7, align 8
  store ptr %3, ptr %8, align 8
  %9 = load i32, ptr %5, align 4
  %10 = icmp eq i32 %9, 1
  br i1 %10, label %11, label %13

11:                                               ; preds = %4
  %12 = load ptr, ptr %6, align 8
  call void @tcg_gen_movi_i64(ptr noundef %12, i64 noundef 1)
  br label %25

13:                                               ; preds = %4
  %14 = load i32, ptr %5, align 4
  %15 = icmp eq i32 %14, 0
  br i1 %15, label %16, label %18

16:                                               ; preds = %13
  %17 = load ptr, ptr %6, align 8
  call void @tcg_gen_movi_i64(ptr noundef %17, i64 noundef 0)
  br label %24

18:                                               ; preds = %13
  %19 = load ptr, ptr %6, align 8
  %20 = load ptr, ptr %7, align 8
  %21 = load ptr, ptr %8, align 8
  %22 = load i32, ptr %5, align 4
  %23 = zext i32 %22 to i64
  call void @tcg_gen_op4i_i64(i32 noundef 64, ptr noundef %19, ptr noundef %20, ptr noundef %21, i64 noundef %23)
  br label %24

24:                                               ; preds = %18, %16
  br label %25

25:                                               ; preds = %24, %11
  ret void
}

; Function Attrs: nounwind sspstrong uwtable
define dso_local void @tcg_gen_setcondi_i64(i32 noundef %0, ptr noundef %1, ptr noundef %2, i64 noundef %3) #3 {
  %5 = alloca i32, align 4
  %6 = alloca ptr, align 8
  %7 = alloca ptr, align 8
  %8 = alloca i64, align 8
  store i32 %0, ptr %5, align 4
  store ptr %1, ptr %6, align 8
  store ptr %2, ptr %7, align 8
  store i64 %3, ptr %8, align 8
  %9 = load i32, ptr %5, align 4
  %10 = load ptr, ptr %6, align 8
  %11 = load ptr, ptr %7, align 8
  %12 = load i64, ptr %8, align 8
  %13 = call ptr @tcg_constant_i64(i64 noundef %12)
  call void @tcg_gen_setcond_i64(i32 noundef %9, ptr noundef %10, ptr noundef %11, ptr noundef %13)
  ret void
}