; Function Attrs: nounwind sspstrong uwtable
define dso_local void @tcg_gen_setcondi_i64(i32 noundef %0, ptr noundef %1, ptr noundef %2, i64 noundef %3) local_unnamed_addr #2 {
  %5 = tail call ptr @tcg_constant_i64(i64 noundef %3) #6
  switch i32 %0, label %32 [
    i32 1, label %6
    i32 0, label %19
  ]

6:                                                ; preds = %4
  %7 = tail call ptr @tcg_constant_i64(i64 noundef 1) #6
  %8 = icmp eq ptr %1, %7
  br i1 %8, label %tcg_gen_setcond_i64.exit, label %9

9:                                                ; preds = %6
  %10 = tail call align 8 ptr @llvm.threadlocal.address.p0(ptr align 8 @tcg_ctx)
  %11 = load ptr, ptr %10, align 8
  %12 = ptrtoint ptr %1 to i64
  %13 = getelementptr inbounds nuw i8, ptr %11, i64 %12
  %14 = ptrtoint ptr %13 to i64
  %15 = ptrtoint ptr %7 to i64
  %16 = getelementptr inbounds nuw i8, ptr %11, i64 %15
  %17 = ptrtoint ptr %16 to i64
  %18 = tail call ptr @tcg_gen_op2(i32 noundef 63, i32 noundef 1, i64 noundef %14, i64 noundef %17)
  br label %tcg_gen_setcond_i64.exit

19:                                               ; preds = %4
  %20 = tail call ptr @tcg_constant_i64(i64 noundef 0) #6
  %21 = icmp eq ptr %1, %20
  br i1 %21, label %tcg_gen_setcond_i64.exit, label %22

22:                                               ; preds = %19
  %23 = tail call align 8 ptr @llvm.threadlocal.address.p0(ptr align 8 @tcg_ctx)
  %24 = load ptr, ptr %23, align 8
  %25 = ptrtoint ptr %1 to i64
  %26 = getelementptr inbounds nuw i8, ptr %24, i64 %25
  %27 = ptrtoint ptr %26 to i64
  %28 = ptrtoint ptr %20 to i64
  %29 = getelementptr inbounds nuw i8, ptr %24, i64 %28
  %30 = ptrtoint ptr %29 to i64
  %31 = tail call ptr @tcg_gen_op2(i32 noundef 63, i32 noundef 1, i64 noundef %27, i64 noundef %30)
  br label %tcg_gen_setcond_i64.exit

32:                                               ; preds = %4
  %33 = zext i32 %0 to i64
  %34 = tail call align 8 ptr @llvm.threadlocal.address.p0(ptr align 8 @tcg_ctx)
  %35 = load ptr, ptr %34, align 8
  %36 = ptrtoint ptr %1 to i64
  %37 = getelementptr inbounds nuw i8, ptr %35, i64 %36
  %38 = ptrtoint ptr %37 to i64
  %39 = ptrtoint ptr %2 to i64
  %40 = getelementptr inbounds nuw i8, ptr %35, i64 %39
  %41 = ptrtoint ptr %40 to i64
  %42 = ptrtoint ptr %5 to i64
  %43 = getelementptr inbounds nuw i8, ptr %35, i64 %42
  %44 = ptrtoint ptr %43 to i64
  %45 = tail call ptr @tcg_gen_op4(i32 noundef 64, i32 noundef 1, i64 noundef %38, i64 noundef %41, i64 noundef %44, i64 noundef range(i64 1, 4294967296) %33)
  br label %tcg_gen_setcond_i64.exit

tcg_gen_setcond_i64.exit:                         ; preds = %6, %9, %19, %22, %32
  ret void
}